; Function Attrs: mustprogress nounwind uwtable
define internal fastcc noundef nonnull align 8 dereferenceable(32) ptr @"_ZNSt8functionIFvRN4llvm16MachineIRBuilderEEEaSIZNS0_14CombinerHelper16matchAddOverflowERNS0_12MachineInstrERS4_E3$_5EENSt9enable_ifIXsr9_CallableIT_EE5valueES9_E4typeEOSC_"(ptr noundef nonnull returned align 8 dereferenceable(32) %0, ptr nocapture noundef nonnull align 8 dereferenceable(40) %1) unnamed_addr #0 align 2 {
  %.sroa.0.i.i = alloca { i64, i64 }, align 8
  %3 = alloca %"class.std::function.248", align 8
  %4 = getelementptr inbounds nuw i8, ptr %3, i64 16
  %5 = getelementptr inbounds nuw i8, ptr %3, i64 24
  %6 = getelementptr inbounds i8, ptr %3, i64 8
  store i64 0, ptr %6, align 8
  %7 = tail call noalias noundef nonnull dereferenceable(40) ptr @_Znwm(i64 noundef 40) #28
  %8 = load i64, ptr %1, align 8
  store i64 %8, ptr %7, align 8
  %9 = getelementptr inbounds nuw i8, ptr %7, i64 8
  %10 = getelementptr inbounds nuw i8, ptr %1, i64 8
  %11 = getelementptr inbounds i8, ptr %7, i64 16
  %12 = getelementptr inbounds i8, ptr %1, i64 16
  %13 = load i32, ptr %12, align 8
  store i32 %13, ptr %11, align 8
  %14 = load i64, ptr %10, align 8
  store i64 %14, ptr %9, align 8
  store i32 0, ptr %12, align 8
  %15 = getelementptr inbounds nuw i8, ptr %7, i64 24
  %16 = getelementptr inbounds nuw i8, ptr %1, i64 24
  tail call void @llvm.memcpy.p0.p0.i64(ptr noundef nonnull align 8 dereferenceable(16) %15, ptr noundef nonnull align 8 dereferenceable(16) %16, i64 16, i1 false)
  store ptr %7, ptr %3, align 8
  call void @llvm.lifetime.start.p0(i64 16, ptr nonnull %.sroa.0.i.i)
  call void @llvm.memcpy.p0.p0.i64(ptr noundef nonnull align 8 dereferenceable(16) %.sroa.0.i.i, ptr noundef nonnull align 8 dereferenceable(16) %3, i64 16, i1 false)
  call void @llvm.memcpy.p0.p0.i64(ptr noundef nonnull align 8 dereferenceable(16) %3, ptr noundef nonnull align 8 dereferenceable(16) %0, i64 16, i1 false)
  call void @llvm.memcpy.p0.p0.i64(ptr noundef nonnull align 8 dereferenceable(16) %0, ptr noundef nonnull align 8 dereferenceable(16) %.sroa.0.i.i, i64 16, i1 false)
  call void @llvm.lifetime.end.p0(i64 16, ptr nonnull %.sroa.0.i.i)
  %17 = getelementptr inbounds nuw i8, ptr %0, i64 16
  %18 = load ptr, ptr %17, align 8
  store ptr %18, ptr %4, align 8
  store ptr @"_ZNSt17_Function_handlerIFvRN4llvm16MachineIRBuilderEEZNS0_14CombinerHelper16matchAddOverflowERNS0_12MachineInstrERSt8functionIS3_EE3$_5E10_M_managerERSt9_Any_dataRKSC_St18_Manager_operation", ptr %17, align 8
  %19 = getelementptr inbounds nuw i8, ptr %0, i64 24
  %20 = load ptr, ptr %19, align 8
  store ptr %20, ptr %5, align 8
  store ptr @"_ZNSt17_Function_handlerIFvRN4llvm16MachineIRBuilderEEZNS0_14CombinerHelper16matchAddOverflowERNS0_12MachineInstrERSt8functionIS3_EE3$_5E9_M_invokeERKSt9_Any_dataS2_", ptr %19, align 8
  %.not.i.i = icmp eq ptr %18, null
  br i1 %.not.i.i, label %_ZNSt8functionIFvRN4llvm16MachineIRBuilderEEED2Ev.exit, label %21

21:                                               ; preds = %2
  %22 = call noundef zeroext i1 %18(ptr noundef nonnull align 8 dereferenceable(16) %3, ptr noundef nonnull align 8 dereferenceable(16) %3, i32 noundef 3) #27
  br label %_ZNSt8functionIFvRN4llvm16MachineIRBuilderEEED2Ev.exit

_ZNSt8functionIFvRN4llvm16MachineIRBuilderEEED2Ev.exit: ; preds = %2, %21
  ret ptr %0
}